Certificate:
    Data:
        Version: 3 (0x2)
        Serial Number: 0 (0x0)
    Signature Algorithm: sha256WithRSAEncryption
        Issuer: C=CN, ST=beijing, O=topsec, CN=topsec_cloud, OU=topsec/emailAddress=topsec@topsec.com.cn
        Validity
            Not Before: Apr  8 10:29:01 2018 GMT
            Not After : Apr  5 10:29:01 2028 GMT
        Subject: C=CN, ST=beijing, O=topsec, OU=topsec, CN=topsec_server_cloud/emailAddress=topsec@topsec.com.cn
        Subject Public Key Info:
            Public Key Algorithm: rsaEncryption
                Public-Key: (2048 bit)
                Modulus:
                    00:b1:3d:89:b1:1a:c8:15:f1:a0:31:5e:a2:43:c6:
                    a9:5e:04:f2:4a:4d:22:c9:dc:f8:59:e6:6f:63:d2:
                    07:c4:76:e1:1e:9d:5e:85:2c:f9:02:6c:ad:6c:8f:
                    09:f7:fe:c4:13:a0:c5:3d:70:d3:84:48:9d:7f:68:
                    32:66:82:cd:54:43:d2:b4:b8:be:0c:ad:58:a0:f7:
                    dd:43:c1:0f:94:4a:5f:89:8d:b0:b8:c8:18:61:53:
                    24:6c:29:f9:7f:d3:84:79:87:fb:12:57:23:7e:85:
                    00:6a:93:b6:bf:36:fe:8a:d8:52:4e:dd:96:32:b6:
                    7c:85:8c:be:c9:77:dc:d3:ce:a9:4e:04:7f:bd:3b:
                    5f:3e:ad:12:8c:25:3a:b8:21:6d:7e:dc:3c:71:ce:
                    f5:7b:75:82:7e:d9:78:f5:05:eb:27:cd:cc:e4:b2:
                    dd:6d:c9:e3:d1:68:c1:ea:8f:5a:ba:e7:33:0b:2f:
                    77:66:27:01:72:da:d5:b9:28:4e:7d:fd:8b:42:a8:
                    f6:fe:88:22:3f:bf:ef:51:11:b5:d9:f3:c3:cb:bb:
                    da:99:bf:e3:df:3b:c1:81:cb:ba:95:8b:0d:69:76:
                    06:8c:36:df:a4:2b:2c:4d:a7:57:97:bf:b4:2e:c5:
                    de:e4:ce:27:e0:a2:34:ca:e9:66:d6:57:16:b0:be:
                    28:e5
                Exponent: 65537 (0x10001)
        X509v3 extensions:
            X509v3 Basic Constraints: 
                CA:FALSE
            Netscape Comment: 
                OpenSSL Generated Certificate
            X509v3 Subject Key Identifier: 
                C7:43:5A:63:FD:9C:42:B8:A8:04:9E:1A:1E:0F:D0:FB:4A:DC:AF:B9
            X509v3 Authority Key Identifier: 
                DirName:/C=CN/ST=beijing/O=topsec/CN=topsec_cloud/OU=topsec/emailAddress=topsec@topsec.com.cn
                serial:94:FE:2E:17:3F:FE:01:45

    Signature Algorithm: sha256WithRSAEncryption
         63:91:3e:da:ac:a4:ce:33:b2:b9:88:9b:ff:82:f3:52:81:d8:
         ec:09:7e:47:ba:28:72:6b:fc:2d:24:36:27:7a:94:1a:36:1c:
         d6:80:ca:57:9d:7b:ba:8c:6f:2f:0a:f4:42:83:dc:95:c7:e1:
         e7:a4:3a:03:ba:7f:aa:75:6f:df:72:63:36:04:a5:9f:75:16:
         c8:61:8e:fc:06:ca:61:d5:de:c3:1f:a9:49:0a:a6:74:fe:45:
         17:52:2a:a8:c2:6f:92:af:05:8e:1e:2a:20:01:46:b7:0d:95:
         f9:eb:cb:13:eb:5e:a5:b9:aa:02:d2:df:a3:8f:85:05:a8:a5:
         96:32:51:1b:6a:54:a0:cb:fa:57:13:9e:42:19:3d:ba:a7:49:
         f5:fc:25:a2:a9:17:4a:4a:0d:4a:29:02:e9:4b:ef:b2:55:39:
         f3:d6:c5:dd:45:da:54:66:4c:ab:c5:eb:34:bf:2b:00:b1:e2:
         4f:4d:76:e0:6a:fb:04:29:19:63:b9:d4:57:37:04:3e:07:48:
         3d:3e:24:f5:bb:09:6a:59:98:c6:40:2a:3e:f7:df:38:12:59:
         07:d6:95:e1:6b:07:85:9a:8b:2f:6c:e0:6f:92:74:87:9a:67:
         5d:20:63:8a:c5:8d:39:9e:d9:c8:8f:b6:f3:7d:92:86:38:e9:
         6e:11:4c:d2
-----BEGIN CERTIFICATE-----
MIIEdjCCA16gAwIBAgIBADANBgkqhkiG9w0BAQsFADB9MQswCQYDVQQGEwJDTjEQ
MA4GA1UECAwHYmVpamluZzEPMA0GA1UECgwGdG9wc2VjMRUwEwYDVQQDDAx0b3Bz
ZWNfY2xvdWQxDzANBgNVBAsMBnRvcHNlYzEjMCEGCSqGSIb3DQEJARYUdG9wc2Vj
QHRvcHNlYy5jb20uY24wHhcNMTgwNDA4MTAyOTAxWhcNMjgwNDA1MTAyOTAxWjCB
hDELMAkGA1UEBhMCQ04xEDAOBgNVBAgMB2JlaWppbmcxDzANBgNVBAoMBnRvcHNl
YzEPMA0GA1UECwwGdG9wc2VjMRwwGgYDVQQDDBN0b3BzZWNfc2VydmVyX2Nsb3Vk
MSMwIQYJKoZIhvcNAQkBFhR0b3BzZWNAdG9wc2VjLmNvbS5jbjCCASIwDQYJKoZI
hvcNAQEBBQADggEPADCCAQoCggEBALE9ibEayBXxoDFeokPGqV4E8kpNIsnc+Fnm
b2PSB8R24R6dXoUs+QJsrWyPCff+xBOgxT1w04RInX9oMmaCzVRD0rS4vgytWKD3
3UPBD5RKX4mNsLjIGGFTJGwp+X/ThHmH+xJXI36FAGqTtr82/orYUk7dljK2fIWM
vsl33NPOqU4Ef707Xz6tEowlOrghbX7cPHHO9Xt1gn7ZePUF6yfNzOSy3W3J49Fo
weqPWrrnMwsvd2YnAXLa1bkoTn39i0Ko9v6IIj+/71ERtdnzw8u72pm/4987wYHL
upWLDWl2Bow236QrLE2nV5e/tC7F3uTOJ+CiNMrpZtZXFrC+KOUCAwEAAaOB+DCB
9TAJBgNVHRMEAjAAMCwGCWCGSAGG+EIBDQQfFh1PcGVuU1NMIEdlbmVyYXRlZCBD
ZXJ0aWZpY2F0ZTAdBgNVHQ4EFgQUx0NaY/2cQrioBJ4aHg/Q+0rcr7kwgZoGA1Ud
IwSBkjCBj6GBgaR/MH0xCzAJBgNVBAYTAkNOMRAwDgYDVQQIDAdiZWlqaW5nMQ8w
DQYDVQQKDAZ0b3BzZWMxFTATBgNVBAMMDHRvcHNlY19jbG91ZDEPMA0GA1UECwwG
dG9wc2VjMSMwIQYJKoZIhvcNAQkBFhR0b3BzZWNAdG9wc2VjLmNvbS5jboIJAJT+
Lhc//gFFMA0GCSqGSIb3DQEBCwUAA4IBAQBjkT7arKTOM7K5iJv/gvNSgdjsCX5H
uihya/wtJDYnepQaNhzWgMpXnXu6jG8vCvRCg9yVx+HnpDoDun+qdW/fcmM2BKWf
dRbIYY78Bsph1d7DH6lJCqZ0/kUXUiqowm+SrwWOHiogAUa3DZX568sT616luaoC
0t+jj4UFqKWWMlEbalSgy/pXE55CGT26p0n1/CWiqRdKSg1KKQLpS++yVTnz1sXd
RdpUZkyrxes0vysAseJPTXbgavsEKRljudRXNwQ+B0g9PiT1uwlqWZjGQCo+9984
ElkH1pXhaweFmosvbOBvknSHmmddIGOKxY05ntnIj7bzfZKGOOluEUzS
-----END CERTIFICATE-----
